target datalayout = "e-m:e-p270:32:32-p271:32:32-p272:64:64-i64:64-i128:128-f80:128-n8:16:32:64-S128"
target triple = "x86_64-pc-linux-gnu"

%"class.bParse::b3BulletFile" = type { %"class.bParse::bFile.base", ptr, %class.b3AlignedObjectArray.0, %class.b3AlignedObjectArray.0, %class.b3AlignedObjectArray.0, %class.b3AlignedObjectArray.0, %class.b3AlignedObjectArray.0, %class.b3AlignedObjectArray.0, %class.b3AlignedObjectArray.0, %class.b3AlignedObjectArray.0, %class.b3AlignedObjectArray.4 }
%"class.bParse::bFile.base" = type <{ ptr, [7 x i8], i8, ptr, i32, i32, %class.b3HashMap, i32, [4 x i8], ptr, ptr, %class.b3AlignedObjectArray.4, %class.b3AlignedObjectArray.4, %class.b3AlignedObjectArray.6, %class.b3HashMap.8, %class.b3HashMap, i32 }>
%class.b3AlignedObjectArray.6 = type <{ [4 x i8], i32, i32, [4 x i8], ptr, i8, [7 x i8] }>
%class.b3HashMap.8 = type { %class.b3AlignedObjectArray, %class.b3AlignedObjectArray, %class.b3AlignedObjectArray.6, %class.b3AlignedObjectArray.2 }
%class.b3AlignedObjectArray = type <{ [4 x i8], i32, i32, [4 x i8], ptr, i8, [7 x i8] }>
%class.b3AlignedObjectArray.2 = type <{ [4 x i8], i32, i32, [4 x i8], ptr, i8, [7 x i8] }>
%class.b3HashMap = type { %class.b3AlignedObjectArray, %class.b3AlignedObjectArray, %class.b3AlignedObjectArray.0, %class.b3AlignedObjectArray.2 }
%class.b3AlignedObjectArray.0 = type <{ [4 x i8], i32, i32, [4 x i8], ptr, i8, [7 x i8] }>
%class.b3AlignedObjectArray.4 = type <{ [4 x i8], i32, i32, [4 x i8], ptr, i8, [7 x i8] }>

@.str.1 = private unnamed_addr constant [8 x i8] c"BULLET \00", align 1

; Function Attrs: mustprogress uwtable
define linkonce_odr dso_local void @_ZN18b3AlignedAllocatorIPN6bParse13bStructHandleELj16EE10deallocateEPS2_(ptr noundef nonnull align 1 dereferenceable(1) %0, ptr noundef %1) #0 comdat align 2 {
  %3 = alloca ptr, align 8
  %4 = alloca ptr, align 8
  store ptr %0, ptr %3, align 8, !tbaa !92
  store ptr %1, ptr %4, align 8, !tbaa !68
  %5 = load ptr, ptr %4, align 8, !tbaa !68
  call void @_Z21b3AlignedFreeInternalPv(ptr noundef %5)
  ret void
}

; Function Attrs: inlinehint mustprogress uwtable
define linkonce_odr dso_local void @_ZN20b3AlignedObjectArrayIPN6bParse13bStructHandleEE10deallocateEv(ptr noundef nonnull align 8 dereferenceable(25) %0) #10 comdat align 2 {
  %2 = alloca ptr, align 8
  store ptr %0, ptr %2, align 8, !tbaa !37
  %3 = load ptr, ptr %2, align 8
  %4 = getelementptr inbounds nuw %class.b3AlignedObjectArray.0, ptr %3, i32 0, i32 4
  %5 = load ptr, ptr %4, align 8, !tbaa !73
  %6 = icmp ne ptr %5, null
  br i1 %6, label %7, label %16

7:                                                ; preds = %1
  %8 = getelementptr inbounds nuw %class.b3AlignedObjectArray.0, ptr %3, i32 0, i32 5
  %9 = load i8, ptr %8, align 8, !tbaa !94, !range !52, !noundef !53
  %10 = trunc i8 %9 to i1
  br i1 %10, label %11, label %14

11:                                               ; preds = %7
  %12 = getelementptr inbounds nuw %class.b3AlignedObjectArray.0, ptr %3, i32 0, i32 4
  %13 = load ptr, ptr %12, align 8, !tbaa !73
  call void @_ZN18b3AlignedAllocatorIPN6bParse13bStructHandleELj16EE10deallocateEPS2_(ptr noundef nonnull align 1 dereferenceable(1) %3, ptr noundef %13)
  br label %14

14:                                               ; preds = %11, %7
  %15 = getelementptr inbounds nuw %class.b3AlignedObjectArray.0, ptr %3, i32 0, i32 4
  store ptr null, ptr %15, align 8, !tbaa !73
  br label %16

16:                                               ; preds = %14, %1
  ret void
}

; Function Attrs: inlinehint mustprogress nounwind uwtable
define linkonce_odr dso_local void @_ZN20b3AlignedObjectArrayIPN6bParse13bStructHandleEE7destroyEii(ptr noundef nonnull align 8 dereferenceable(25) %0, i32 noundef %1, i32 noundef %2) #8 comdat align 2 {
  %4 = alloca ptr, align 8
  %5 = alloca i32, align 4
  %6 = alloca i32, align 4
  %7 = alloca i32, align 4
  store ptr %0, ptr %4, align 8, !tbaa !37
  store i32 %1, ptr %5, align 4, !tbaa !36
  store i32 %2, ptr %6, align 4, !tbaa !36
  call void @llvm.lifetime.start.p0(i64 4, ptr %7) #13
  %8 = load i32, ptr %5, align 4, !tbaa !36
  store i32 %8, ptr %7, align 4, !tbaa !36
  br label %9

9:                                                ; preds = %14, %3
  %10 = load i32, ptr %7, align 4, !tbaa !36
  %11 = load i32, ptr %6, align 4, !tbaa !36
  %12 = icmp slt i32 %10, %11
  br i1 %12, label %13, label %17

13:                                               ; preds = %9
  br label %14

14:                                               ; preds = %13
  %15 = load i32, ptr %7, align 4, !tbaa !36
  %16 = add nsw i32 %15, 1
  store i32 %16, ptr %7, align 4, !tbaa !36
  br label %9, !llvm.loop !96

17:                                               ; preds = %9
  call void @llvm.lifetime.end.p0(i64 4, ptr %7) #13
  ret void
}

; Function Attrs: inlinehint mustprogress nounwind uwtable
define linkonce_odr dso_local noundef i32 @_ZNK20b3AlignedObjectArrayIPN6bParse13bStructHandleEE4sizeEv(ptr noundef nonnull align 8 dereferenceable(25) %0) #8 comdat align 2 {
  %2 = alloca ptr, align 8
  store ptr %0, ptr %2, align 8, !tbaa !37
  %3 = load ptr, ptr %2, align 8
  %4 = getelementptr inbounds nuw %class.b3AlignedObjectArray.0, ptr %3, i32 0, i32 1
  %5 = load i32, ptr %4, align 4, !tbaa !74
  ret i32 %5
}

; Function Attrs: noinline noreturn nounwind uwtable
define linkonce_odr hidden void @__clang_call_terminate(ptr noundef %0) #7 comdat {
  %2 = call ptr @__cxa_begin_catch(ptr %0) #13
  call void @_ZSt9terminatev() #14
  unreachable
}

; Function Attrs: inlinehint mustprogress uwtable
define linkonce_odr dso_local void @_ZN20b3AlignedObjectArrayIPN6bParse13bStructHandleEE5clearEv(ptr noundef nonnull align 8 dereferenceable(25) %0) #10 comdat align 2 {
  %2 = alloca ptr, align 8
  store ptr %0, ptr %2, align 8, !tbaa !37
  %3 = load ptr, ptr %2, align 8
  %4 = call noundef i32 @_ZNK20b3AlignedObjectArrayIPN6bParse13bStructHandleEE4sizeEv(ptr noundef nonnull align 8 dereferenceable(25) %3)
  call void @_ZN20b3AlignedObjectArrayIPN6bParse13bStructHandleEE7destroyEii(ptr noundef nonnull align 8 dereferenceable(25) %3, i32 noundef 0, i32 noundef %4)
  call void @_ZN20b3AlignedObjectArrayIPN6bParse13bStructHandleEE10deallocateEv(ptr noundef nonnull align 8 dereferenceable(25) %3)
  call void @_ZN20b3AlignedObjectArrayIPN6bParse13bStructHandleEE4initEv(ptr noundef nonnull align 8 dereferenceable(25) %3)
  ret void
}

; Function Attrs: inlinehint mustprogress nounwind uwtable
define linkonce_odr dso_local void @_ZN20b3AlignedObjectArrayIPcE4initEv(ptr noundef nonnull align 8 dereferenceable(25) %0) #8 comdat align 2 {
  %2 = alloca ptr, align 8
  store ptr %0, ptr %2, align 8, !tbaa !39
  %3 = load ptr, ptr %2, align 8
  %4 = getelementptr inbounds nuw %class.b3AlignedObjectArray.4, ptr %3, i32 0, i32 5
  store i8 1, ptr %4, align 8, !tbaa !85
  %5 = getelementptr inbounds nuw %class.b3AlignedObjectArray.4, ptr %3, i32 0, i32 4
  store ptr null, ptr %5, align 8, !tbaa !45
  %6 = getelementptr inbounds nuw %class.b3AlignedObjectArray.4, ptr %3, i32 0, i32 1
  store i32 0, ptr %6, align 4, !tbaa !44
  %7 = getelementptr inbounds nuw %class.b3AlignedObjectArray.4, ptr %3, i32 0, i32 2
  store i32 0, ptr %7, align 8, !tbaa !84
  ret void
}

; Function Attrs: mustprogress nounwind uwtable
define linkonce_odr dso_local void @_ZN18b3AlignedAllocatorIPcLj16EEC2Ev(ptr noundef nonnull align 1 dereferenceable(1) %0) unnamed_addr #5 comdat align 2 {
  %2 = alloca ptr, align 8
  store ptr %0, ptr %2, align 8, !tbaa !88
  ret void
}

; Function Attrs: inlinehint mustprogress nounwind uwtable
define linkonce_odr dso_local void @_ZN20b3AlignedObjectArrayIPN6bParse13bStructHandleEE4initEv(ptr noundef nonnull align 8 dereferenceable(25) %0) #8 comdat align 2 {
  %2 = alloca ptr, align 8
  store ptr %0, ptr %2, align 8, !tbaa !37
  %3 = load ptr, ptr %2, align 8
  %4 = getelementptr inbounds nuw %class.b3AlignedObjectArray.0, ptr %3, i32 0, i32 5
  store i8 1, ptr %4, align 8, !tbaa !94
  %5 = getelementptr inbounds nuw %class.b3AlignedObjectArray.0, ptr %3, i32 0, i32 4
  store ptr null, ptr %5, align 8, !tbaa !73
  %6 = getelementptr inbounds nuw %class.b3AlignedObjectArray.0, ptr %3, i32 0, i32 1
  store i32 0, ptr %6, align 4, !tbaa !74
  %7 = getelementptr inbounds nuw %class.b3AlignedObjectArray.0, ptr %3, i32 0, i32 2
  store i32 0, ptr %7, align 8, !tbaa !95
  ret void
}

; Function Attrs: mustprogress nounwind uwtable
define linkonce_odr dso_local void @_ZN18b3AlignedAllocatorIPN6bParse13bStructHandleELj16EEC2Ev(ptr noundef nonnull align 1 dereferenceable(1) %0) unnamed_addr #5 comdat align 2 {
  %2 = alloca ptr, align 8
  store ptr %0, ptr %2, align 8, !tbaa !92
  ret void
}

; Function Attrs: mustprogress nounwind uwtable
define linkonce_odr dso_local void @_ZN20b3AlignedObjectArrayIPN6bParse13bStructHandleEED2Ev(ptr noundef nonnull align 8 dereferenceable(25) %0) unnamed_addr #5 comdat align 2 personality ptr @__gxx_personality_v0 {
  %2 = alloca ptr, align 8
  store ptr %0, ptr %2, align 8, !tbaa !37
  %3 = load ptr, ptr %2, align 8
  invoke void @_ZN20b3AlignedObjectArrayIPN6bParse13bStructHandleEE5clearEv(ptr noundef nonnull align 8 dereferenceable(25) %3)
          to label %4 unwind label %5

4:                                                ; preds = %1
  ret void

5:                                                ; preds = %1
  %6 = landingpad { ptr, i32 }
          catch ptr null
  %7 = extractvalue { ptr, i32 } %6, 0
  call void @__clang_call_terminate(ptr %7) #14
  unreachable
}

; Function Attrs: mustprogress uwtable
define linkonce_odr dso_local void @_ZN20b3AlignedObjectArrayIPcEC2Ev(ptr noundef nonnull align 8 dereferenceable(25) %0) unnamed_addr #0 comdat align 2 {
  %2 = alloca ptr, align 8
  store ptr %0, ptr %2, align 8, !tbaa !39
  %3 = load ptr, ptr %2, align 8
  call void @_ZN18b3AlignedAllocatorIPcLj16EEC2Ev(ptr noundef nonnull align 1 dereferenceable(1) %3)
  call void @_ZN20b3AlignedObjectArrayIPcE4initEv(ptr noundef nonnull align 8 dereferenceable(25) %3)
  ret void
}

; Function Attrs: mustprogress uwtable
define linkonce_odr dso_local void @_ZN20b3AlignedObjectArrayIPN6bParse13bStructHandleEEC2Ev(ptr noundef nonnull align 8 dereferenceable(25) %0) unnamed_addr #0 comdat align 2 {
  %2 = alloca ptr, align 8
  store ptr %0, ptr %2, align 8, !tbaa !37
  %3 = load ptr, ptr %2, align 8
  call void @_ZN18b3AlignedAllocatorIPN6bParse13bStructHandleELj16EEC2Ev(ptr noundef nonnull align 1 dereferenceable(1) %3)
  call void @_ZN20b3AlignedObjectArrayIPN6bParse13bStructHandleEE4initEv(ptr noundef nonnull align 8 dereferenceable(25) %3)
  ret void
}

; Function Attrs: mustprogress uwtable
define dso_local void @_ZN6bParse12b3BulletFileC2EPKc(ptr noundef nonnull align 8 dereferenceable(840) %0, ptr noundef %1) unnamed_addr #0 align 2 personality ptr @__gxx_personality_v0 {
  %3 = alloca ptr, align 8
  %4 = alloca ptr, align 8
  %5 = alloca ptr, align 8
  %6 = alloca i32, align 4
  store ptr %0, ptr %3, align 8, !tbaa !4
  store ptr %1, ptr %4, align 8, !tbaa !41
  %7 = load ptr, ptr %3, align 8
  %8 = load ptr, ptr %4, align 8, !tbaa !41
  call void @_ZN6bParse5bFileC2EPKcS2_(ptr noundef nonnull align 8 dereferenceable(540) %7, ptr noundef %8, ptr noundef @.str.1)
  store ptr getelementptr inbounds inrange(-16, 72) ({ [11 x ptr] }, ptr @_ZTVN6bParse12b3BulletFileE, i32 0, i32 0, i32 2), ptr %7, align 8, !tbaa !9
  %9 = getelementptr inbounds nuw %"class.bParse::b3BulletFile", ptr %7, i32 0, i32 2
  invoke void @_ZN20b3AlignedObjectArrayIPN6bParse13bStructHandleEEC2Ev(ptr noundef nonnull align 8 dereferenceable(25) %9)
          to label %10 unwind label %28

10:                                               ; preds = %2
  %11 = getelementptr inbounds nuw %"class.bParse::b3BulletFile", ptr %7, i32 0, i32 3
  invoke void @_ZN20b3AlignedObjectArrayIPN6bParse13bStructHandleEEC2Ev(ptr noundef nonnull align 8 dereferenceable(25) %11)
          to label %12 unwind label %32

12:                                               ; preds = %10
  %13 = getelementptr inbounds nuw %"class.bParse::b3BulletFile", ptr %7, i32 0, i32 4
  invoke void @_ZN20b3AlignedObjectArrayIPN6bParse13bStructHandleEEC2Ev(ptr noundef nonnull align 8 dereferenceable(25) %13)
          to label %14 unwind label %36

14:                                               ; preds = %12
  %15 = getelementptr inbounds nuw %"class.bParse::b3BulletFile", ptr %7, i32 0, i32 5
  invoke void @_ZN20b3AlignedObjectArrayIPN6bParse13bStructHandleEEC2Ev(ptr noundef nonnull align 8 dereferenceable(25) %15)
          to label %16 unwind label %40

16:                                               ; preds = %14
  %17 = getelementptr inbounds nuw %"class.bParse::b3BulletFile", ptr %7, i32 0, i32 6
  invoke void @_ZN20b3AlignedObjectArrayIPN6bParse13bStructHandleEEC2Ev(ptr noundef nonnull align 8 dereferenceable(25) %17)
          to label %18 unwind label %44

18:                                               ; preds = %16
  %19 = getelementptr inbounds nuw %"class.bParse::b3BulletFile", ptr %7, i32 0, i32 7
  invoke void @_ZN20b3AlignedObjectArrayIPN6bParse13bStructHandleEEC2Ev(ptr noundef nonnull align 8 dereferenceable(25) %19)
          to label %20 unwind label %48

20:                                               ; preds = %18
  %21 = getelementptr inbounds nuw %"class.bParse::b3BulletFile", ptr %7, i32 0, i32 8
  invoke void @_ZN20b3AlignedObjectArrayIPN6bParse13bStructHandleEEC2Ev(ptr noundef nonnull align 8 dereferenceable(25) %21)
          to label %22 unwind label %52

22:                                               ; preds = %20
  %23 = getelementptr inbounds nuw %"class.bParse::b3BulletFile", ptr %7, i32 0, i32 9
  invoke void @_ZN20b3AlignedObjectArrayIPN6bParse13bStructHandleEEC2Ev(ptr noundef nonnull align 8 dereferenceable(25) %23)
          to label %24 unwind label %56

24:                                               ; preds = %22
  %25 = getelementptr inbounds nuw %"class.bParse::b3BulletFile", ptr %7, i32 0, i32 10
  invoke void @_ZN20b3AlignedObjectArrayIPcEC2Ev(ptr noundef nonnull align 8 dereferenceable(25) %25)
          to label %26 unwind label %60

26:                                               ; preds = %24
  %27 = getelementptr inbounds nuw %"class.bParse::b3BulletFile", ptr %7, i32 0, i32 1
  store ptr null, ptr %27, align 8, !tbaa !34
  ret void

28:                                               ; preds = %2
  %29 = landingpad { ptr, i32 }
          cleanup
  %30 = extractvalue { ptr, i32 } %29, 0
  store ptr %30, ptr %5, align 8
  %31 = extractvalue { ptr, i32 } %29, 1
  store i32 %31, ptr %6, align 4
  br label %71

32:                                               ; preds = %10
  %33 = landingpad { ptr, i32 }
          cleanup
  %34 = extractvalue { ptr, i32 } %33, 0
  store ptr %34, ptr %5, align 8
  %35 = extractvalue { ptr, i32 } %33, 1
  store i32 %35, ptr %6, align 4
  br label %70

36:                                               ; preds = %12
  %37 = landingpad { ptr, i32 }
          cleanup
  %38 = extractvalue { ptr, i32 } %37, 0
  store ptr %38, ptr %5, align 8
  %39 = extractvalue { ptr, i32 } %37, 1
  store i32 %39, ptr %6, align 4
  br label %69

40:                                               ; preds = %14
  %41 = landingpad { ptr, i32 }
          cleanup
  %42 = extractvalue { ptr, i32 } %41, 0
  store ptr %42, ptr %5, align 8
  %43 = extractvalue { ptr, i32 } %41, 1
  store i32 %43, ptr %6, align 4
  br label %68

44:                                               ; preds = %16
  %45 = landingpad { ptr, i32 }
          cleanup
  %46 = extractvalue { ptr, i32 } %45, 0
  store ptr %46, ptr %5, align 8
  %47 = extractvalue { ptr, i32 } %45, 1
  store i32 %47, ptr %6, align 4
  br label %67

48:                                               ; preds = %18
  %49 = landingpad { ptr, i32 }
          cleanup
  %50 = extractvalue { ptr, i32 } %49, 0
  store ptr %50, ptr %5, align 8
  %51 = extractvalue { ptr, i32 } %49, 1
  store i32 %51, ptr %6, align 4
  br label %66

52:                                               ; preds = %20
  %53 = landingpad { ptr, i32 }
          cleanup
  %54 = extractvalue { ptr, i32 } %53, 0
  store ptr %54, ptr %5, align 8
  %55 = extractvalue { ptr, i32 } %53, 1
  store i32 %55, ptr %6, align 4
  br label %65

56:                                               ; preds = %22
  %57 = landingpad { ptr, i32 }
          cleanup
  %58 = extractvalue { ptr, i32 } %57, 0
  store ptr %58, ptr %5, align 8
  %59 = extractvalue { ptr, i32 } %57, 1
  store i32 %59, ptr %6, align 4
  br label %64

60:                                               ; preds = %24
  %61 = landingpad { ptr, i32 }
          cleanup
  %62 = extractvalue { ptr, i32 } %61, 0
  store ptr %62, ptr %5, align 8
  %63 = extractvalue { ptr, i32 } %61, 1
  store i32 %63, ptr %6, align 4
  call void @_ZN20b3AlignedObjectArrayIPN6bParse13bStructHandleEED2Ev(ptr noundef nonnull align 8 dereferenceable(25) %23) #13
  br label %64

64:                                               ; preds = %60, %56
  call void @_ZN20b3AlignedObjectArrayIPN6bParse13bStructHandleEED2Ev(ptr noundef nonnull align 8 dereferenceable(25) %21) #13
  br label %65

65:                                               ; preds = %64, %52
  call void @_ZN20b3AlignedObjectArrayIPN6bParse13bStructHandleEED2Ev(ptr noundef nonnull align 8 dereferenceable(25) %19) #13
  br label %66

66:                                               ; preds = %65, %48
  call void @_ZN20b3AlignedObjectArrayIPN6bParse13bStructHandleEED2Ev(ptr noundef nonnull align 8 dereferenceable(25) %17) #13
  br label %67

67:                                               ; preds = %66, %44
  call void @_ZN20b3AlignedObjectArrayIPN6bParse13bStructHandleEED2Ev(ptr noundef nonnull align 8 dereferenceable(25) %15) #13
  br label %68

68:                                               ; preds = %67, %40
  call void @_ZN20b3AlignedObjectArrayIPN6bParse13bStructHandleEED2Ev(ptr noundef nonnull align 8 dereferenceable(25) %13) #13
  br label %69

69:                                               ; preds = %68, %36
  call void @_ZN20b3AlignedObjectArrayIPN6bParse13bStructHandleEED2Ev(ptr noundef nonnull align 8 dereferenceable(25) %11) #13
  br label %70

70:                                               ; preds = %69, %32
  call void @_ZN20b3AlignedObjectArrayIPN6bParse13bStructHandleEED2Ev(ptr noundef nonnull align 8 dereferenceable(25) %9) #13
  br label %71

71:                                               ; preds = %70, %28
  call void @_ZN6bParse5bFileD2Ev(ptr noundef nonnull align 8 dereferenceable(540) %7) #13
  br label %72

72:                                               ; preds = %71
  %73 = load ptr, ptr %5, align 8
  %74 = load i32, ptr %6, align 4
  %75 = insertvalue { ptr, i32 } poison, ptr %73, 0
  %76 = insertvalue { ptr, i32 } %75, i32 %74, 1
  resume { ptr, i32 } %76
}